target datalayout = "e-m:e-p270:32:32-p271:32:32-p272:64:64-i64:64-i128:128-f80:128-n8:16:32:64-S128"
target triple = "x86_64-pc-linux-gnu"

%struct.rb_global_entry = type { ptr, i64, i8 }
%struct.rb_global_variable = type { i32, i32, ptr, ptr, ptr, ptr, ptr, ptr }
%struct.trace_var = type { i32, ptr, i64, ptr }

; Function Attrs: nounwind sspstrong uwtable
define internal i32 @mark_global_entry(i64 noundef %0, ptr noundef %1) #0 {
  %3 = alloca i64, align 8
  %4 = alloca ptr, align 8
  %5 = alloca ptr, align 8
  %6 = alloca ptr, align 8
  %7 = alloca ptr, align 8
  store i64 %0, ptr %3, align 8, !tbaa !14
  store ptr %1, ptr %4, align 8, !tbaa !40
  call void @llvm.lifetime.start.p0(i64 8, ptr %5) #30
  %8 = load i64, ptr %3, align 8, !tbaa !14
  %9 = inttoptr i64 %8 to ptr
  store ptr %9, ptr %5, align 8, !tbaa !52
  call void @llvm.lifetime.start.p0(i64 8, ptr %6) #30
  call void @llvm.lifetime.start.p0(i64 8, ptr %7) #30
  %10 = load ptr, ptr %5, align 8, !tbaa !52
  %11 = getelementptr inbounds nuw %struct.rb_global_entry, ptr %10, i32 0, i32 0
  %12 = load ptr, ptr %11, align 8, !tbaa !54
  store ptr %12, ptr %7, align 8, !tbaa !62
  %13 = load ptr, ptr %7, align 8, !tbaa !62
  %14 = getelementptr inbounds nuw %struct.rb_global_variable, ptr %13, i32 0, i32 5
  %15 = load ptr, ptr %14, align 8, !tbaa !65
  %16 = load ptr, ptr %7, align 8, !tbaa !62
  %17 = getelementptr inbounds nuw %struct.rb_global_variable, ptr %16, i32 0, i32 2
  %18 = load ptr, ptr %17, align 8, !tbaa !67
  call void %15(ptr noundef %18)
  %19 = load ptr, ptr %7, align 8, !tbaa !62
  %20 = getelementptr inbounds nuw %struct.rb_global_variable, ptr %19, i32 0, i32 7
  %21 = load ptr, ptr %20, align 8, !tbaa !70
  store ptr %21, ptr %6, align 8, !tbaa !71
  br label %22

22:                                               ; preds = %34, %2
  %23 = load ptr, ptr %6, align 8, !tbaa !71
  %24 = icmp ne ptr %23, null
  br i1 %24, label %25, label %38

25:                                               ; preds = %22
  %26 = load ptr, ptr %6, align 8, !tbaa !71
  %27 = getelementptr inbounds nuw %struct.trace_var, ptr %26, i32 0, i32 2
  %28 = load i64, ptr %27, align 8, !tbaa !72
  %29 = icmp ne i64 %28, 0
  br i1 %29, label %30, label %34

30:                                               ; preds = %25
  %31 = load ptr, ptr %6, align 8, !tbaa !71
  %32 = getelementptr inbounds nuw %struct.trace_var, ptr %31, i32 0, i32 2
  %33 = load i64, ptr %32, align 8, !tbaa !72
  call void @rb_gc_mark_maybe(i64 noundef %33)
  br label %34

34:                                               ; preds = %30, %25
  %35 = load ptr, ptr %6, align 8, !tbaa !71
  %36 = getelementptr inbounds nuw %struct.trace_var, ptr %35, i32 0, i32 3
  %37 = load ptr, ptr %36, align 8, !tbaa !74
  store ptr %37, ptr %6, align 8, !tbaa !71
  br label %22, !llvm.loop !75

38:                                               ; preds = %22
  call void @llvm.lifetime.end.p0(i64 8, ptr %7) #30
  call void @llvm.lifetime.end.p0(i64 8, ptr %6) #30
  call void @llvm.lifetime.end.p0(i64 8, ptr %5) #30
  ret i32 0
}