; Function Attrs: nounwind sspstrong uwtable
define internal noundef i32 @mark_global_entry(i64 noundef %0, ptr readnone captures(none) %1) #0 {
  %3 = inttoptr i64 %0 to ptr
  %4 = load ptr, ptr %3, align 8, !tbaa !58
  %5 = getelementptr inbounds nuw i8, ptr %4, i64 32
  %6 = load ptr, ptr %5, align 8, !tbaa !75
  %7 = getelementptr inbounds nuw i8, ptr %4, i64 8
  %8 = load ptr, ptr %7, align 8, !tbaa !77
  tail call void %6(ptr noundef %8) #27
  %9 = getelementptr inbounds nuw i8, ptr %4, i64 48
  %.010 = load ptr, ptr %9, align 8, !tbaa !80
  %.not11 = icmp eq ptr %.010, null
  br i1 %.not11, label %._crit_edge, label %.lr.ph

.lr.ph:                                           ; preds = %2, %13
  %.012 = phi ptr [ %.0, %13 ], [ %.010, %2 ]
  %10 = getelementptr inbounds nuw i8, ptr %.012, i64 16
  %11 = load i64, ptr %10, align 8, !tbaa !81
  %.not9 = icmp eq i64 %11, 0
  br i1 %.not9, label %13, label %12

12:                                               ; preds = %.lr.ph
  tail call void @rb_gc_mark_maybe(i64 noundef %11) #27
  br label %13

13:                                               ; preds = %12, %.lr.ph
  %14 = getelementptr inbounds nuw i8, ptr %.012, i64 24
  %.0 = load ptr, ptr %14, align 8, !tbaa !80
  %.not = icmp eq ptr %.0, null
  br i1 %.not, label %._crit_edge, label %.lr.ph, !llvm.loop !82

._crit_edge:                                      ; preds = %13, %2
  ret i32 0
}